; Function Attrs: nounwind uwtable
define ptr @l_Std_Range_forIn_x27_loop___at_Lean_Meta_ACLt_main_ltApp___spec__1___boxed(ptr noundef %0, ptr noundef %1, ptr noundef %2, ptr noundef %3, ptr noundef %4, ptr noundef %5, ptr noundef %6, ptr noundef %7, ptr noundef %8, ptr noundef readnone captures(none) %9, ptr noundef readnone captures(none) %10, ptr noundef %11, ptr noundef %12, ptr noundef %13, ptr noundef %14, ptr noundef %15) local_unnamed_addr #1 {
  %17 = ptrtoint ptr %0 to i64
  %18 = lshr i64 %17, 1
  %19 = trunc i64 %18 to i8
  %20 = and i64 %17, 1
  %.not = icmp eq i64 %20, 0
  br i1 %.not, label %21, label %lean_dec.exit27

21:                                               ; preds = %16
  %22 = load i32, ptr %0, align 4, !tbaa !4
  %23 = icmp sgt i32 %22, 1
  br i1 %23, label %24, label %26, !prof !9

24:                                               ; preds = %21
  %25 = add nsw i32 %22, -1
  store i32 %25, ptr %0, align 4, !tbaa !4
  br label %lean_dec.exit27

26:                                               ; preds = %21
  %.not.i = icmp eq i32 %22, 0
  br i1 %.not.i, label %lean_dec.exit27, label %27

27:                                               ; preds = %26
  tail call void @lean_dec_ref_cold(ptr noundef nonnull %0) #8
  br label %lean_dec.exit27

lean_dec.exit27:                                  ; preds = %27, %26, %24, %16
  %28 = tail call ptr @l_Std_Range_forIn_x27_loop___at_Lean_Meta_ACLt_main_ltApp___spec__1(i8 noundef zeroext %19, ptr noundef %1, ptr noundef %2, ptr noundef %3, ptr poison, ptr noundef %5, ptr noundef %6, ptr noundef %7, ptr noundef %8, ptr poison, ptr poison, ptr noundef %11, ptr noundef %12, ptr noundef %13, ptr noundef %14, ptr noundef %15)
  %29 = ptrtoint ptr %6 to i64
  %30 = and i64 %29, 1
  %.not38 = icmp eq i64 %30, 0
  br i1 %.not38, label %31, label %lean_dec.exit26

31:                                               ; preds = %lean_dec.exit27
  %32 = load i32, ptr %6, align 4, !tbaa !4
  %33 = icmp sgt i32 %32, 1
  br i1 %33, label %34, label %36, !prof !9

34:                                               ; preds = %31
  %35 = add nsw i32 %32, -1
  store i32 %35, ptr %6, align 4, !tbaa !4
  br label %lean_dec.exit26

36:                                               ; preds = %31
  %.not.i28 = icmp eq i32 %32, 0
  br i1 %.not.i28, label %lean_dec.exit26, label %37

37:                                               ; preds = %36
  tail call void @lean_dec_ref_cold(ptr noundef nonnull %6) #8
  br label %lean_dec.exit26

lean_dec.exit26:                                  ; preds = %37, %36, %34, %lean_dec.exit27
  %38 = ptrtoint ptr %4 to i64
  %39 = and i64 %38, 1
  %.not39 = icmp eq i64 %39, 0
  br i1 %.not39, label %40, label %lean_dec.exit25

40:                                               ; preds = %lean_dec.exit26
  %41 = load i32, ptr %4, align 4, !tbaa !4
  %42 = icmp sgt i32 %41, 1
  br i1 %42, label %43, label %45, !prof !9

43:                                               ; preds = %40
  %44 = add nsw i32 %41, -1
  store i32 %44, ptr %4, align 4, !tbaa !4
  br label %lean_dec.exit25

45:                                               ; preds = %40
  %.not.i30 = icmp eq i32 %41, 0
  br i1 %.not.i30, label %lean_dec.exit25, label %46

46:                                               ; preds = %45
  tail call void @lean_dec_ref_cold(ptr noundef nonnull %4) #8
  br label %lean_dec.exit25

lean_dec.exit25:                                  ; preds = %46, %45, %43, %lean_dec.exit26
  %47 = ptrtoint ptr %3 to i64
  %48 = and i64 %47, 1
  %.not40 = icmp eq i64 %48, 0
  br i1 %.not40, label %49, label %lean_dec.exit24

49:                                               ; preds = %lean_dec.exit25
  %50 = load i32, ptr %3, align 4, !tbaa !4
  %51 = icmp sgt i32 %50, 1
  br i1 %51, label %52, label %54, !prof !9

52:                                               ; preds = %49
  %53 = add nsw i32 %50, -1
  store i32 %53, ptr %3, align 4, !tbaa !4
  br label %lean_dec.exit24

54:                                               ; preds = %49
  %.not.i32 = icmp eq i32 %50, 0
  br i1 %.not.i32, label %lean_dec.exit24, label %55

55:                                               ; preds = %54
  tail call void @lean_dec_ref_cold(ptr noundef nonnull %3) #8
  br label %lean_dec.exit24

lean_dec.exit24:                                  ; preds = %55, %54, %52, %lean_dec.exit25
  %56 = ptrtoint ptr %2 to i64
  %57 = and i64 %56, 1
  %.not41 = icmp eq i64 %57, 0
  br i1 %.not41, label %58, label %lean_dec.exit23

58:                                               ; preds = %lean_dec.exit24
  %59 = load i32, ptr %2, align 4, !tbaa !4
  %60 = icmp sgt i32 %59, 1
  br i1 %60, label %61, label %63, !prof !9

61:                                               ; preds = %58
  %62 = add nsw i32 %59, -1
  store i32 %62, ptr %2, align 4, !tbaa !4
  br label %lean_dec.exit23

63:                                               ; preds = %58
  %.not.i34 = icmp eq i32 %59, 0
  br i1 %.not.i34, label %lean_dec.exit23, label %64

64:                                               ; preds = %63
  tail call void @lean_dec_ref_cold(ptr noundef nonnull %2) #8
  br label %lean_dec.exit23

lean_dec.exit23:                                  ; preds = %64, %63, %61, %lean_dec.exit24
  %65 = ptrtoint ptr %1 to i64
  %66 = and i64 %65, 1
  %.not42 = icmp eq i64 %66, 0
  br i1 %.not42, label %67, label %lean_dec.exit

67:                                               ; preds = %lean_dec.exit23
  %68 = load i32, ptr %1, align 4, !tbaa !4
  %69 = icmp sgt i32 %68, 1
  br i1 %69, label %70, label %72, !prof !9

70:                                               ; preds = %67
  %71 = add nsw i32 %68, -1
  store i32 %71, ptr %1, align 4, !tbaa !4
  br label %lean_dec.exit

72:                                               ; preds = %67
  %.not.i36 = icmp eq i32 %68, 0
  br i1 %.not.i36, label %lean_dec.exit, label %73

73:                                               ; preds = %72
  tail call void @lean_dec_ref_cold(ptr noundef nonnull %1) #8
  br label %lean_dec.exit

lean_dec.exit:                                    ; preds = %73, %72, %70, %lean_dec.exit23
  ret ptr %28
}